target datalayout = "e-m:e-p270:32:32-p271:32:32-p272:64:64-i64:64-i128:128-f80:128-n8:16:32:64-S128"
target triple = "x86_64-pc-linux-gnu"

%struct.FFIOContext = type { %struct.AVIOContext, ptr, i32, i32, i64, i64, i64, i64, i32, i32, i32, i64 }
%struct.AVIOContext = type { ptr, ptr, i32, ptr, ptr, ptr, ptr, ptr, ptr, i64, i32, i32, i32, i32, i32, i64, ptr, ptr, ptr, ptr, i32, i32, ptr, ptr, ptr, i32, ptr, i64, i64 }
%struct.Mp4Descr = type { i32, i32, ptr, %struct.SLConfigDescr }
%struct.SLConfigDescr = type { i32, i32, i32, i32, i32, i32, i32, i32, i32, i32, i32, i32, i32, i32 }
%struct.MP4DescrParseContext = type { ptr, %struct.FFIOContext, ptr, ptr, i32, i32, i32, i32 }

; Function Attrs: alwaysinline nounwind uwtable
define internal i64 @avio_tell(ptr noundef %0) #2 {
  %2 = alloca ptr, align 8
  store ptr %0, ptr %2, align 8, !tbaa !183
  %3 = load ptr, ptr %2, align 8, !tbaa !183
  %4 = call i64 @avio_seek(ptr noundef %3, i64 noundef 0, i32 noundef 1)
  ret i64 %4
}

; Function Attrs: nounwind uwtable
define internal void @update_offsets(ptr noundef %0, ptr noundef %1, ptr noundef %2) #0 {
  %4 = alloca ptr, align 8
  %5 = alloca ptr, align 8
  %6 = alloca ptr, align 8
  %7 = alloca i64, align 8
  store ptr %0, ptr %4, align 8, !tbaa !183
  store ptr %1, ptr %5, align 8, !tbaa !196
  store ptr %2, ptr %6, align 8, !tbaa !213
  call void @llvm.lifetime.start.p0(i64 8, ptr %7) #12
  %8 = load ptr, ptr %4, align 8, !tbaa !183
  %9 = call i64 @avio_tell(ptr noundef %8)
  store i64 %9, ptr %7, align 8, !tbaa !90
  %10 = load i64, ptr %7, align 8, !tbaa !90
  %11 = load ptr, ptr %5, align 8, !tbaa !196
  %12 = load i64, ptr %11, align 8, !tbaa !90
  %13 = sub nsw i64 %10, %12
  %14 = load ptr, ptr %6, align 8, !tbaa !213
  %15 = load i32, ptr %14, align 4, !tbaa !11
  %16 = sext i32 %15 to i64
  %17 = sub nsw i64 %16, %13
  %18 = trunc i64 %17 to i32
  store i32 %18, ptr %14, align 4, !tbaa !11
  %19 = load i64, ptr %7, align 8, !tbaa !90
  %20 = load ptr, ptr %5, align 8, !tbaa !196
  store i64 %19, ptr %20, align 8, !tbaa !90
  call void @llvm.lifetime.end.p0(i64 8, ptr %7) #12
  ret void
}

; Function Attrs: nounwind uwtable
define internal i32 @parse_MP4ESDescrTag(ptr noundef %0, i64 noundef %1, i32 noundef %2) #0 {
  %4 = alloca i32, align 4
  %5 = alloca ptr, align 8
  %6 = alloca i64, align 8
  %7 = alloca i32, align 4
  %8 = alloca ptr, align 8
  %9 = alloca i32, align 4
  %10 = alloca i32, align 4
  %11 = alloca i32, align 4
  store ptr %0, ptr %5, align 8, !tbaa !218
  store i64 %1, ptr %6, align 8, !tbaa !90
  store i32 %2, ptr %7, align 4, !tbaa !11
  call void @llvm.lifetime.start.p0(i64 8, ptr %8) #12
  %12 = load ptr, ptr %5, align 8, !tbaa !218
  %13 = getelementptr inbounds nuw %struct.MP4DescrParseContext, ptr %12, i32 0, i32 1
  %14 = getelementptr inbounds nuw %struct.FFIOContext, ptr %13, i32 0, i32 0
  store ptr %14, ptr %8, align 8, !tbaa !183
  call void @llvm.lifetime.start.p0(i64 4, ptr %9) #12
  store i32 0, ptr %9, align 4, !tbaa !11
  call void @llvm.lifetime.start.p0(i64 4, ptr %10) #12
  store i32 0, ptr %10, align 4, !tbaa !11
  %15 = load ptr, ptr %5, align 8, !tbaa !218
  %16 = getelementptr inbounds nuw %struct.MP4DescrParseContext, ptr %15, i32 0, i32 4
  %17 = load i32, ptr %16, align 8, !tbaa !214
  %18 = load ptr, ptr %5, align 8, !tbaa !218
  %19 = getelementptr inbounds nuw %struct.MP4DescrParseContext, ptr %18, i32 0, i32 5
  %20 = load i32, ptr %19, align 4, !tbaa !224
  %21 = icmp sge i32 %17, %20
  br i1 %21, label %22, label %23

22:                                               ; preds = %3
  store i32 -1094995529, ptr %4, align 4
  store i32 1, ptr %11, align 4
  br label %62

23:                                               ; preds = %3
  %24 = load ptr, ptr %8, align 8, !tbaa !183
  call void @ff_mp4_parse_es_descr(ptr noundef %24, ptr noundef %9)
  %25 = load ptr, ptr %5, align 8, !tbaa !218
  %26 = getelementptr inbounds nuw %struct.MP4DescrParseContext, ptr %25, i32 0, i32 2
  %27 = load ptr, ptr %26, align 8, !tbaa !222
  %28 = load ptr, ptr %5, align 8, !tbaa !218
  %29 = getelementptr inbounds nuw %struct.MP4DescrParseContext, ptr %28, i32 0, i32 4
  %30 = load i32, ptr %29, align 8, !tbaa !214
  %31 = add nsw i32 %30, 1
  store i32 %31, ptr %29, align 8, !tbaa !214
  %32 = sext i32 %30 to i64
  %33 = getelementptr inbounds %struct.Mp4Descr, ptr %27, i64 %32
  %34 = load ptr, ptr %5, align 8, !tbaa !218
  %35 = getelementptr inbounds nuw %struct.MP4DescrParseContext, ptr %34, i32 0, i32 3
  store ptr %33, ptr %35, align 8, !tbaa !223
  %36 = load i32, ptr %9, align 4, !tbaa !11
  %37 = load ptr, ptr %5, align 8, !tbaa !218
  %38 = getelementptr inbounds nuw %struct.MP4DescrParseContext, ptr %37, i32 0, i32 3
  %39 = load ptr, ptr %38, align 8, !tbaa !223
  %40 = getelementptr inbounds nuw %struct.Mp4Descr, ptr %39, i32 0, i32 0
  store i32 %36, ptr %40, align 8, !tbaa !57
  %41 = load ptr, ptr %8, align 8, !tbaa !183
  call void @update_offsets(ptr noundef %41, ptr noundef %6, ptr noundef %7)
  %42 = load ptr, ptr %5, align 8, !tbaa !218
  %43 = load i64, ptr %6, align 8, !tbaa !90
  %44 = load i32, ptr %7, align 4, !tbaa !11
  %45 = call i32 @parse_mp4_descr(ptr noundef %42, i64 noundef %43, i32 noundef %44, i32 noundef 4)
  store i32 %45, ptr %10, align 4, !tbaa !11
  %46 = icmp slt i32 %45, 0
  br i1 %46, label %47, label %49

47:                                               ; preds = %23
  %48 = load i32, ptr %10, align 4, !tbaa !11
  store i32 %48, ptr %4, align 4
  store i32 1, ptr %11, align 4
  br label %62

49:                                               ; preds = %23
  %50 = load ptr, ptr %8, align 8, !tbaa !183
  call void @update_offsets(ptr noundef %50, ptr noundef %6, ptr noundef %7)
  %51 = load i32, ptr %7, align 4, !tbaa !11
  %52 = icmp sgt i32 %51, 0
  br i1 %52, label %53, label %58

53:                                               ; preds = %49
  %54 = load ptr, ptr %5, align 8, !tbaa !218
  %55 = load i64, ptr %6, align 8, !tbaa !90
  %56 = load i32, ptr %7, align 4, !tbaa !11
  %57 = call i32 @parse_mp4_descr(ptr noundef %54, i64 noundef %55, i32 noundef %56, i32 noundef 6)
  store i32 %57, ptr %10, align 4, !tbaa !11
  br label %58

58:                                               ; preds = %53, %49
  %59 = load ptr, ptr %5, align 8, !tbaa !218
  %60 = getelementptr inbounds nuw %struct.MP4DescrParseContext, ptr %59, i32 0, i32 3
  store ptr null, ptr %60, align 8, !tbaa !223
  %61 = load i32, ptr %10, align 4, !tbaa !11
  store i32 %61, ptr %4, align 4
  store i32 1, ptr %11, align 4
  br label %62

62:                                               ; preds = %58, %47, %22
  call void @llvm.lifetime.end.p0(i64 4, ptr %10) #12
  call void @llvm.lifetime.end.p0(i64 4, ptr %9) #12
  call void @llvm.lifetime.end.p0(i64 8, ptr %8) #12
  %63 = load i32, ptr %4, align 4
  ret i32 %63
}