; Function Attrs: nounwind uwtable
define internal fastcc i32 @parse_MP4ESDescrTag(ptr noundef nonnull %0, i64 noundef %1, i32 noundef range(i32 1, -2147483648) %2) unnamed_addr #0 {
  %4 = alloca i32, align 4
  %5 = getelementptr inbounds nuw i8, ptr %0, i64 8
  call void @llvm.lifetime.start.p0(i64 4, ptr nonnull %4) #12
  store i32 0, ptr %4, align 4, !tbaa !107
  %6 = getelementptr inbounds nuw i8, ptr %0, i64 304
  %7 = load i32, ptr %6, align 8, !tbaa !99
  %8 = getelementptr inbounds nuw i8, ptr %0, i64 308
  %9 = load i32, ptr %8, align 4, !tbaa !102
  %.not = icmp slt i32 %7, %9
  br i1 %.not, label %10, label %32

10:                                               ; preds = %3
  call void @ff_mp4_parse_es_descr(ptr noundef nonnull %5, ptr noundef nonnull %4) #12
  %11 = getelementptr inbounds nuw i8, ptr %0, i64 288
  %12 = load ptr, ptr %11, align 8, !tbaa !100
  %13 = load i32, ptr %6, align 8, !tbaa !99
  %14 = add nsw i32 %13, 1
  store i32 %14, ptr %6, align 8, !tbaa !99
  %15 = sext i32 %13 to i64
  %16 = getelementptr inbounds %struct.Mp4Descr, ptr %12, i64 %15
  %17 = getelementptr inbounds nuw i8, ptr %0, i64 296
  store ptr %16, ptr %17, align 8, !tbaa !101
  %18 = load i32, ptr %4, align 4, !tbaa !107
  store i32 %18, ptr %16, align 8, !tbaa !53
  %19 = call i64 @avio_seek(ptr noundef nonnull %5, i64 noundef 0, i32 noundef 1) #12
  %.neg.i = sub i64 %1, %19
  %20 = trunc i64 %.neg.i to i32
  %21 = add i32 %2, %20
  %22 = call fastcc i32 @parse_mp4_descr(ptr noundef %0, i64 noundef %19, i32 noundef %21, i32 noundef 4)
  %23 = icmp slt i32 %22, 0
  br i1 %23, label %32, label %24

24:                                               ; preds = %10
  %25 = call i64 @avio_seek(ptr noundef nonnull %5, i64 noundef 0, i32 noundef 1) #12
  %.neg.i18 = sub i64 %19, %25
  %26 = trunc i64 %.neg.i18 to i32
  %27 = add i32 %21, %26
  %28 = icmp sgt i32 %27, 0
  br i1 %28, label %29, label %31

29:                                               ; preds = %24
  %30 = call fastcc i32 @parse_mp4_descr(ptr noundef %0, i64 noundef %25, i32 noundef %27, i32 noundef 6)
  br label %31

31:                                               ; preds = %29, %24
  %.0 = phi i32 [ %30, %29 ], [ %22, %24 ]
  store ptr null, ptr %17, align 8, !tbaa !101
  br label %32

32:                                               ; preds = %10, %3, %31
  %.015 = phi i32 [ %.0, %31 ], [ -1094995529, %3 ], [ %22, %10 ]
  call void @llvm.lifetime.end.p0(i64 4, ptr nonnull %4) #12
  ret i32 %.015
}